; Function Attrs: null_pointer_is_valid sspstrong uwtable
define internal noundef zeroext i16 @de_cld_party_sub_addr(ptr noundef %0, ptr noundef %1, ptr noundef %2, i32 noundef %3, i32 noundef %4, ptr noundef %5, i32 noundef %6) #1 {
  %8 = alloca ptr, align 8
  call void @llvm.lifetime.start.p0(i64 8, ptr nonnull %8) #8
  call fastcc void @de_sub_addr(ptr noundef %0, ptr noundef %1, ptr noundef %2, i32 noundef %3, i32 noundef %4, ptr noundef nonnull %8)
  %9 = load ptr, ptr %8, align 8
  %10 = icmp ne ptr %9, null
  %11 = icmp ne ptr %5, null
  %or.cond = and i1 %11, %10
  br i1 %or.cond, label %12, label %15

12:                                               ; preds = %7
  %13 = sext i32 %6 to i64
  %14 = tail call i32 (ptr, i64, i32, i64, ptr, ...) @__snprintf_chk(ptr noundef nonnull %5, i64 noundef %13, i32 noundef 2, i64 noundef -1, ptr noundef nonnull @.str.151, ptr noundef nonnull %9)
  br label %15

15:                                               ; preds = %12, %7
  %16 = trunc i32 %4 to i16
  call void @llvm.lifetime.end.p0(i64 8, ptr nonnull %8) #8
  ret i16 %16
}